
HelloGrafix.elf:     file format elf32-avr

Sections:
Idx Name          Size      VMA       LMA       File off  Algn
  0 .data         00000000  00800100  000003dc  00000470  2**0
                  CONTENTS, ALLOC, LOAD, DATA
  1 .text         000003dc  00000000  00000000  00000094  2**1
                  CONTENTS, ALLOC, LOAD, READONLY, CODE
  2 .bss          00000012  00800100  00800100  00000470  2**0
                  ALLOC
  3 .stab         0000060c  00000000  00000000  00000470  2**2
                  CONTENTS, READONLY, DEBUGGING
  4 .stabstr      00000ce3  00000000  00000000  00000a7c  2**0
                  CONTENTS, READONLY, DEBUGGING
  5 .comment      00000011  00000000  00000000  0000175f  2**0
                  CONTENTS, READONLY
  6 .note.gnu.avr.deviceinfo 0000003c  00000000  00000000  00001770  2**2
                  CONTENTS, READONLY
  7 .debug_info   00000780  00000000  00000000  000017ac  2**0
                  CONTENTS, READONLY, DEBUGGING
  8 .debug_abbrev 00000718  00000000  00000000  00001f2c  2**0
                  CONTENTS, READONLY, DEBUGGING
  9 .debug_line   0000001a  00000000  00000000  00002644  2**0
                  CONTENTS, READONLY, DEBUGGING
 10 .debug_str    0000027d  00000000  00000000  0000265e  2**0
                  CONTENTS, READONLY, DEBUGGING

Disassembly of section .text:

00000000 <__vectors>:
   0:	0c 94 49 00 	jmp	0x92	; 0x92 <__ctors_end>
   4:	0c 94 5b 00 	jmp	0xb6	; 0xb6 <__bad_interrupt>
   8:	0c 94 5b 00 	jmp	0xb6	; 0xb6 <__bad_interrupt>
   c:	0c 94 5b 00 	jmp	0xb6	; 0xb6 <__bad_interrupt>
  10:	0c 94 5b 00 	jmp	0xb6	; 0xb6 <__bad_interrupt>
  14:	0c 94 5b 00 	jmp	0xb6	; 0xb6 <__bad_interrupt>
  18:	0c 94 5b 00 	jmp	0xb6	; 0xb6 <__bad_interrupt>
  1c:	0c 94 5b 00 	jmp	0xb6	; 0xb6 <__bad_interrupt>
  20:	0c 94 5b 00 	jmp	0xb6	; 0xb6 <__bad_interrupt>
  24:	0c 94 5b 00 	jmp	0xb6	; 0xb6 <__bad_interrupt>
  28:	0c 94 5b 00 	jmp	0xb6	; 0xb6 <__bad_interrupt>
  2c:	0c 94 5b 00 	jmp	0xb6	; 0xb6 <__bad_interrupt>
  30:	0c 94 5b 00 	jmp	0xb6	; 0xb6 <__bad_interrupt>
  34:	0c 94 5b 00 	jmp	0xb6	; 0xb6 <__bad_interrupt>
  38:	0c 94 c9 00 	jmp	0x192	; 0x192 <__vector_14>
  3c:	0c 94 5b 00 	jmp	0xb6	; 0xb6 <__bad_interrupt>
  40:	0c 94 5b 00 	jmp	0xb6	; 0xb6 <__bad_interrupt>
  44:	0c 94 5b 00 	jmp	0xb6	; 0xb6 <__bad_interrupt>
  48:	0c 94 5b 00 	jmp	0xb6	; 0xb6 <__bad_interrupt>
  4c:	0c 94 5b 00 	jmp	0xb6	; 0xb6 <__bad_interrupt>
  50:	0c 94 5b 00 	jmp	0xb6	; 0xb6 <__bad_interrupt>
  54:	0c 94 5b 00 	jmp	0xb6	; 0xb6 <__bad_interrupt>
  58:	0c 94 5b 00 	jmp	0xb6	; 0xb6 <__bad_interrupt>
  5c:	0c 94 5b 00 	jmp	0xb6	; 0xb6 <__bad_interrupt>
  60:	0c 94 5b 00 	jmp	0xb6	; 0xb6 <__bad_interrupt>
  64:	0c 94 5b 00 	jmp	0xb6	; 0xb6 <__bad_interrupt>
  68:	0c 94 5b 00 	jmp	0xb6	; 0xb6 <__bad_interrupt>
  6c:	0c 94 5b 00 	jmp	0xb6	; 0xb6 <__bad_interrupt>
  70:	0c 94 5b 00 	jmp	0xb6	; 0xb6 <__bad_interrupt>
  74:	0c 94 5b 00 	jmp	0xb6	; 0xb6 <__bad_interrupt>
  78:	0c 94 5b 00 	jmp	0xb6	; 0xb6 <__bad_interrupt>
  7c:	0c 94 5b 00 	jmp	0xb6	; 0xb6 <__bad_interrupt>
  80:	0c 94 5b 00 	jmp	0xb6	; 0xb6 <__bad_interrupt>
  84:	0c 94 5b 00 	jmp	0xb6	; 0xb6 <__bad_interrupt>
  88:	0c 94 5b 00 	jmp	0xb6	; 0xb6 <__bad_interrupt>

0000008c <__trampolines_end>:
  8c:	32 2e       	mov	r3, r18
  8e:	31 31       	cpi	r19, 0x11	; 17
	...

00000091 <bot_lib_revision>:
	...

00000092 <__ctors_end>:
  92:	11 24       	eor	r1, r1
  94:	1f be       	out	0x3f, r1	; 63
  96:	cf ef       	ldi	r28, 0xFF	; 255
  98:	d0 e1       	ldi	r29, 0x10	; 16
  9a:	de bf       	out	0x3e, r29	; 62
  9c:	cd bf       	out	0x3d, r28	; 61

0000009e <__do_clear_bss>:
  9e:	21 e0       	ldi	r18, 0x01	; 1
  a0:	a0 e0       	ldi	r26, 0x00	; 0
  a2:	b1 e0       	ldi	r27, 0x01	; 1
  a4:	01 c0       	rjmp	.+2      	; 0xa8 <.do_clear_bss_start>

000000a6 <.do_clear_bss_loop>:
  a6:	1d 92       	st	X+, r1

000000a8 <.do_clear_bss_start>:
  a8:	a2 31       	cpi	r26, 0x12	; 18
  aa:	b2 07       	cpc	r27, r18
  ac:	e1 f7       	brne	.-8      	; 0xa6 <.do_clear_bss_loop>
  ae:	0e 94 5d 00 	call	0xba	; 0xba <main>
  b2:	0c 94 ec 01 	jmp	0x3d8	; 0x3d8 <_exit>

000000b6 <__bad_interrupt>:
  b6:	0c 94 00 00 	jmp	0	; 0x0 <__vectors>

000000ba <main>:
 * ueber avr/interrupt.h werden Interrupts eingebunden
 */
#include <avr/interrupt.h>

// Hauptfunktion
int main() {
  ba:	cf 93       	push	r28
  bc:	df 93       	push	r29
  be:	00 d0       	rcall	.+0      	; 0xc0 <main+0x6>
  c0:	cd b7       	in	r28, 0x3d	; 61
  c2:	de b7       	in	r29, 0x3e	; 62
	 * Initialisierungsfunktionen
	 * Aktivieren die jeweiligen Funktionen der Hardware des Nibo2
	 */

	// Einschalten der Interrupts. Noetig fuer die PWM
	sei();
  c4:	78 94       	sei

	// Initialisierung des Roboters (immer noetig)
	bot_init();
  c6:	0e 94 5a 01 	call	0x2b4	; 0x2b4 <bot_init>

	// Initialisierung der LEDs
	leds_init();
  ca:	0e 94 6d 01 	call	0x2da	; 0x2da <leds_init>

	// Initialisierung der Pulsweitenmodulation
	pwm_init();
  ce:	0e 94 97 00 	call	0x12e	; 0x12e <pwm_init>

	// Endlosschleife, laeuft immer wieder durch
	while (1 == 1) {

		// zaehlt von 0 bis 7
		for (int i = 0; i < 8; i++) {
  d2:	1a 82       	std	Y+2, r1	; 0x02
  d4:	19 82       	std	Y+1, r1	; 0x01
  d6:	0a c0       	rjmp	.+20     	; 0xec <main+0x32>

			// LED mit Index i auf gruen setzen
			leds_set_status(LEDS_GREEN, i);
  d8:	89 81       	ldd	r24, Y+1	; 0x01
  da:	68 2f       	mov	r22, r24
  dc:	81 e0       	ldi	r24, 0x01	; 1
  de:	0e 94 75 01 	call	0x2ea	; 0x2ea <leds_set_status>

	// Endlosschleife, laeuft immer wieder durch
	while (1 == 1) {

		// zaehlt von 0 bis 7
		for (int i = 0; i < 8; i++) {
  e2:	89 81       	ldd	r24, Y+1	; 0x01
  e4:	9a 81       	ldd	r25, Y+2	; 0x02
  e6:	01 96       	adiw	r24, 0x01	; 1
  e8:	9a 83       	std	Y+2, r25	; 0x02
  ea:	89 83       	std	Y+1, r24	; 0x01
  ec:	89 81       	ldd	r24, Y+1	; 0x01
  ee:	9a 81       	ldd	r25, Y+2	; 0x02
  f0:	08 97       	sbiw	r24, 0x08	; 8
  f2:	94 f3       	brlt	.-28     	; 0xd8 <main+0x1e>
			// LED mit Index i auf gruen setzen
			leds_set_status(LEDS_GREEN, i);
		}

		// 2 Sekunden warten
		delay(2000);
  f4:	80 ed       	ldi	r24, 0xD0	; 208
  f6:	97 e0       	ldi	r25, 0x07	; 7
  f8:	0e 94 4f 01 	call	0x29e	; 0x29e <delay>

		/*
		 * veraendert die Helligkeit aller Status LEDs (einzelne Helligkeit nicht aenderbar)
		 * Parameter bestimmt Helligkeit. 0 = aus, 1024 = maximal
		 */
		leds_set_status_intensity(128);
  fc:	80 e8       	ldi	r24, 0x80	; 128
  fe:	90 e0       	ldi	r25, 0x00	; 0
 100:	0e 94 99 01 	call	0x332	; 0x332 <leds_set_status_intensity>

		delay(2000);
 104:	80 ed       	ldi	r24, 0xD0	; 208
 106:	97 e0       	ldi	r25, 0x07	; 7
 108:	0e 94 4f 01 	call	0x29e	; 0x29e <delay>

		/*
		 * schaltet die Hintergrundbeleuchtung des Displays ein
		 * 0 = aus, 1024 = maximal
		 */
		leds_set_displaylight(1024);
 10c:	80 e0       	ldi	r24, 0x00	; 0
 10e:	94 e0       	ldi	r25, 0x04	; 4
 110:	0e 94 ad 01 	call	0x35a	; 0x35a <leds_set_displaylight>

		delay(2000);
 114:	80 ed       	ldi	r24, 0xD0	; 208
 116:	97 e0       	ldi	r25, 0x07	; 7
 118:	0e 94 4f 01 	call	0x29e	; 0x29e <delay>

		leds_set_displaylight(512);
 11c:	80 e0       	ldi	r24, 0x00	; 0
 11e:	92 e0       	ldi	r25, 0x02	; 2
 120:	0e 94 ad 01 	call	0x35a	; 0x35a <leds_set_displaylight>

		delay(4000);
 124:	80 ea       	ldi	r24, 0xA0	; 160
 126:	9f e0       	ldi	r25, 0x0F	; 15
 128:	0e 94 4f 01 	call	0x29e	; 0x29e <delay>

	}
 12c:	d2 cf       	rjmp	.-92     	; 0xd2 <main+0x18>

0000012e <pwm_init>:
 12e:	10 92 09 01 	sts	0x0109, r1	; 0x800109 <pwm_timer_sub+0x1>
 132:	10 92 08 01 	sts	0x0108, r1	; 0x800108 <pwm_timer_sub>
 136:	10 92 05 01 	sts	0x0105, r1	; 0x800105 <pwm_timer_ms+0x1>
 13a:	10 92 04 01 	sts	0x0104, r1	; 0x800104 <pwm_timer_ms>
 13e:	10 92 0a 01 	sts	0x010A, r1	; 0x80010a <pwm_timer_sec>
 142:	10 92 0b 01 	sts	0x010B, r1	; 0x80010b <pwm_timer_sec+0x1>
 146:	10 92 0c 01 	sts	0x010C, r1	; 0x80010c <pwm_timer_sec+0x2>
 14a:	10 92 0d 01 	sts	0x010D, r1	; 0x80010d <pwm_timer_sec+0x3>
 14e:	10 92 01 01 	sts	0x0101, r1	; 0x800101 <_edata+0x1>
 152:	10 92 00 01 	sts	0x0100, r1	; 0x800100 <_edata>
 156:	10 92 03 01 	sts	0x0103, r1	; 0x800103 <pwm_channel_B+0x1>
 15a:	10 92 02 01 	sts	0x0102, r1	; 0x800102 <pwm_channel_B>
 15e:	8f ef       	ldi	r24, 0xFF	; 255
 160:	93 e0       	ldi	r25, 0x03	; 3
 162:	90 93 07 01 	sts	0x0107, r25	; 0x800107 <pwm_channel_C+0x1>
 166:	80 93 06 01 	sts	0x0106, r24	; 0x800106 <pwm_channel_C>
 16a:	c5 98       	cbi	0x18, 5	; 24
 16c:	c6 98       	cbi	0x18, 6	; 24
 16e:	bd 9a       	sbi	0x17, 5	; 23
 170:	be 9a       	sbi	0x17, 6	; 23
 172:	bf 9a       	sbi	0x17, 7	; 23
 174:	c7 9a       	sbi	0x18, 7	; 24
 176:	1d bc       	out	0x2d, r1	; 45
 178:	1c bc       	out	0x2c, r1	; 44
 17a:	8a ea       	ldi	r24, 0xAA	; 170
 17c:	8f bd       	out	0x2f, r24	; 47
 17e:	82 e1       	ldi	r24, 0x12	; 18
 180:	8e bd       	out	0x2e, r24	; 46
 182:	80 e0       	ldi	r24, 0x00	; 0
 184:	94 e0       	ldi	r25, 0x04	; 4
 186:	97 bd       	out	0x27, r25	; 39
 188:	86 bd       	out	0x26, r24	; 38
 18a:	87 b7       	in	r24, 0x37	; 55
 18c:	84 60       	ori	r24, 0x04	; 4
 18e:	87 bf       	out	0x37, r24	; 55
 190:	08 95       	ret

00000192 <__vector_14>:
 192:	1f 92       	push	r1
 194:	0f 92       	push	r0
 196:	0f b6       	in	r0, 0x3f	; 63
 198:	0f 92       	push	r0
 19a:	11 24       	eor	r1, r1
 19c:	2f 93       	push	r18
 19e:	3f 93       	push	r19
 1a0:	4f 93       	push	r20
 1a2:	8f 93       	push	r24
 1a4:	9f 93       	push	r25
 1a6:	af 93       	push	r26
 1a8:	bf 93       	push	r27
 1aa:	80 91 08 01 	lds	r24, 0x0108	; 0x800108 <pwm_timer_sub>
 1ae:	90 91 09 01 	lds	r25, 0x0109	; 0x800109 <pwm_timer_sub+0x1>
 1b2:	9c 01       	movw	r18, r24
 1b4:	28 5e       	subi	r18, 0xE8	; 232
 1b6:	3f 4f       	sbci	r19, 0xFF	; 255
 1b8:	28 3e       	cpi	r18, 0xE8	; 232
 1ba:	43 e0       	ldi	r20, 0x03	; 3
 1bc:	34 07       	cpc	r19, r20
 1be:	28 f4       	brcc	.+10     	; 0x1ca <__vector_14+0x38>
 1c0:	30 93 09 01 	sts	0x0109, r19	; 0x800109 <pwm_timer_sub+0x1>
 1c4:	20 93 08 01 	sts	0x0108, r18	; 0x800108 <pwm_timer_sub>
 1c8:	0f c0       	rjmp	.+30     	; 0x1e8 <__vector_14+0x56>
 1ca:	80 5d       	subi	r24, 0xD0	; 208
 1cc:	93 40       	sbci	r25, 0x03	; 3
 1ce:	90 93 09 01 	sts	0x0109, r25	; 0x800109 <pwm_timer_sub+0x1>
 1d2:	80 93 08 01 	sts	0x0108, r24	; 0x800108 <pwm_timer_sub>
 1d6:	80 91 04 01 	lds	r24, 0x0104	; 0x800104 <pwm_timer_ms>
 1da:	90 91 05 01 	lds	r25, 0x0105	; 0x800105 <pwm_timer_ms+0x1>
 1de:	01 96       	adiw	r24, 0x01	; 1
 1e0:	90 93 05 01 	sts	0x0105, r25	; 0x800105 <pwm_timer_ms+0x1>
 1e4:	80 93 04 01 	sts	0x0104, r24	; 0x800104 <pwm_timer_ms>
 1e8:	80 91 04 01 	lds	r24, 0x0104	; 0x800104 <pwm_timer_ms>
 1ec:	90 91 05 01 	lds	r25, 0x0105	; 0x800105 <pwm_timer_ms+0x1>
 1f0:	9c 01       	movw	r18, r24
 1f2:	2f 5f       	subi	r18, 0xFF	; 255
 1f4:	3f 4f       	sbci	r19, 0xFF	; 255
 1f6:	28 3e       	cpi	r18, 0xE8	; 232
 1f8:	43 e0       	ldi	r20, 0x03	; 3
 1fa:	34 07       	cpc	r19, r20
 1fc:	28 f4       	brcc	.+10     	; 0x208 <__vector_14+0x76>
 1fe:	30 93 05 01 	sts	0x0105, r19	; 0x800105 <pwm_timer_ms+0x1>
 202:	20 93 04 01 	sts	0x0104, r18	; 0x800104 <pwm_timer_ms>
 206:	19 c0       	rjmp	.+50     	; 0x23a <__vector_14+0xa8>
 208:	87 5e       	subi	r24, 0xE7	; 231
 20a:	93 40       	sbci	r25, 0x03	; 3
 20c:	90 93 05 01 	sts	0x0105, r25	; 0x800105 <pwm_timer_ms+0x1>
 210:	80 93 04 01 	sts	0x0104, r24	; 0x800104 <pwm_timer_ms>
 214:	80 91 0a 01 	lds	r24, 0x010A	; 0x80010a <pwm_timer_sec>
 218:	90 91 0b 01 	lds	r25, 0x010B	; 0x80010b <pwm_timer_sec+0x1>
 21c:	a0 91 0c 01 	lds	r26, 0x010C	; 0x80010c <pwm_timer_sec+0x2>
 220:	b0 91 0d 01 	lds	r27, 0x010D	; 0x80010d <pwm_timer_sec+0x3>
 224:	01 96       	adiw	r24, 0x01	; 1
 226:	a1 1d       	adc	r26, r1
 228:	b1 1d       	adc	r27, r1
 22a:	80 93 0a 01 	sts	0x010A, r24	; 0x80010a <pwm_timer_sec>
 22e:	90 93 0b 01 	sts	0x010B, r25	; 0x80010b <pwm_timer_sec+0x1>
 232:	a0 93 0c 01 	sts	0x010C, r26	; 0x80010c <pwm_timer_sec+0x2>
 236:	b0 93 0d 01 	sts	0x010D, r27	; 0x80010d <pwm_timer_sec+0x3>
 23a:	80 91 00 01 	lds	r24, 0x0100	; 0x800100 <_edata>
 23e:	90 91 01 01 	lds	r25, 0x0101	; 0x800101 <_edata+0x1>
 242:	8f 3f       	cpi	r24, 0xFF	; 255
 244:	23 e0       	ldi	r18, 0x03	; 3
 246:	92 07       	cpc	r25, r18
 248:	10 f0       	brcs	.+4      	; 0x24e <__vector_14+0xbc>
 24a:	80 e0       	ldi	r24, 0x00	; 0
 24c:	94 e0       	ldi	r25, 0x04	; 4
 24e:	9b bd       	out	0x2b, r25	; 43
 250:	8a bd       	out	0x2a, r24	; 42
 252:	80 91 02 01 	lds	r24, 0x0102	; 0x800102 <pwm_channel_B>
 256:	90 91 03 01 	lds	r25, 0x0103	; 0x800103 <pwm_channel_B+0x1>
 25a:	8f 3f       	cpi	r24, 0xFF	; 255
 25c:	43 e0       	ldi	r20, 0x03	; 3
 25e:	94 07       	cpc	r25, r20
 260:	10 f0       	brcs	.+4      	; 0x266 <__vector_14+0xd4>
 262:	80 e0       	ldi	r24, 0x00	; 0
 264:	94 e0       	ldi	r25, 0x04	; 4
 266:	99 bd       	out	0x29, r25	; 41
 268:	88 bd       	out	0x28, r24	; 40
 26a:	80 91 06 01 	lds	r24, 0x0106	; 0x800106 <pwm_channel_C>
 26e:	90 91 07 01 	lds	r25, 0x0107	; 0x800107 <pwm_channel_C+0x1>
 272:	8f 3f       	cpi	r24, 0xFF	; 255
 274:	23 e0       	ldi	r18, 0x03	; 3
 276:	92 07       	cpc	r25, r18
 278:	10 f0       	brcs	.+4      	; 0x27e <__vector_14+0xec>
 27a:	80 e0       	ldi	r24, 0x00	; 0
 27c:	94 e0       	ldi	r25, 0x04	; 4
 27e:	90 93 79 00 	sts	0x0079, r25	; 0x800079 <__TEXT_REGION_LENGTH__+0x7e0079>
 282:	80 93 78 00 	sts	0x0078, r24	; 0x800078 <__TEXT_REGION_LENGTH__+0x7e0078>
 286:	bf 91       	pop	r27
 288:	af 91       	pop	r26
 28a:	9f 91       	pop	r25
 28c:	8f 91       	pop	r24
 28e:	4f 91       	pop	r20
 290:	3f 91       	pop	r19
 292:	2f 91       	pop	r18
 294:	0f 90       	pop	r0
 296:	0f be       	out	0x3f, r0	; 63
 298:	0f 90       	pop	r0
 29a:	1f 90       	pop	r1
 29c:	18 95       	reti

0000029e <delay>:
 29e:	00 97       	sbiw	r24, 0x00	; 0
 2a0:	41 f0       	breq	.+16     	; 0x2b2 <delay+0x14>
 2a2:	ef e9       	ldi	r30, 0x9F	; 159
 2a4:	ff e0       	ldi	r31, 0x0F	; 15
 2a6:	31 97       	sbiw	r30, 0x01	; 1
 2a8:	f1 f7       	brne	.-4      	; 0x2a6 <delay+0x8>
 2aa:	00 c0       	rjmp	.+0      	; 0x2ac <delay+0xe>
 2ac:	00 00       	nop
 2ae:	01 97       	sbiw	r24, 0x01	; 1
 2b0:	f6 cf       	rjmp	.-20     	; 0x29e <delay>
 2b2:	08 95       	ret

000002b4 <bot_init>:
 2b4:	8f 9a       	sbi	0x11, 7	; 17
 2b6:	97 98       	cbi	0x12, 7	; 18
 2b8:	8a e0       	ldi	r24, 0x0A	; 10
 2ba:	90 e0       	ldi	r25, 0x00	; 0
 2bc:	0e 94 4f 01 	call	0x29e	; 0x29e <delay>
 2c0:	97 9a       	sbi	0x12, 7	; 18
 2c2:	84 e6       	ldi	r24, 0x64	; 100
 2c4:	90 e0       	ldi	r25, 0x00	; 0
 2c6:	0c 94 4f 01 	jmp	0x29e	; 0x29e <delay>

000002ca <bot_update>:
 2ca:	87 e0       	ldi	r24, 0x07	; 7
 2cc:	0e 94 c9 01 	call	0x392	; 0x392 <adc_read>
 2d0:	90 93 0f 01 	sts	0x010F, r25	; 0x80010f <bot_supply+0x1>
 2d4:	80 93 0e 01 	sts	0x010E, r24	; 0x80010e <bot_supply>
 2d8:	08 95       	ret

000002da <leds_init>:
 2da:	bf 9a       	sbi	0x17, 7	; 23
 2dc:	c7 9a       	sbi	0x18, 7	; 24
 2de:	bd 9a       	sbi	0x17, 5	; 23
 2e0:	be 9a       	sbi	0x17, 6	; 23
 2e2:	8f ef       	ldi	r24, 0xFF	; 255
 2e4:	82 b9       	out	0x02, r24	; 2
 2e6:	84 bb       	out	0x14, r24	; 20
 2e8:	08 95       	ret

000002ea <leds_set_status>:
 2ea:	95 b3       	in	r25, 0x15	; 21
 2ec:	21 e0       	ldi	r18, 0x01	; 1
 2ee:	30 e0       	ldi	r19, 0x00	; 0
 2f0:	06 2e       	mov	r0, r22
 2f2:	01 c0       	rjmp	.+2      	; 0x2f6 <leds_set_status+0xc>
 2f4:	22 0f       	add	r18, r18
 2f6:	0a 94       	dec	r0
 2f8:	ea f7       	brpl	.-6      	; 0x2f4 <leds_set_status+0xa>
 2fa:	80 ff       	sbrs	r24, 0
 2fc:	02 c0       	rjmp	.+4      	; 0x302 <leds_set_status+0x18>
 2fe:	29 2b       	or	r18, r25
 300:	02 c0       	rjmp	.+4      	; 0x306 <leds_set_status+0x1c>
 302:	20 95       	com	r18
 304:	29 23       	and	r18, r25
 306:	25 bb       	out	0x15, r18	; 21
 308:	23 b1       	in	r18, 0x03	; 3
 30a:	81 ff       	sbrs	r24, 1
 30c:	08 c0       	rjmp	.+16     	; 0x31e <leds_set_status+0x34>
 30e:	81 e0       	ldi	r24, 0x01	; 1
 310:	90 e0       	ldi	r25, 0x00	; 0
 312:	01 c0       	rjmp	.+2      	; 0x316 <leds_set_status+0x2c>
 314:	88 0f       	add	r24, r24
 316:	6a 95       	dec	r22
 318:	ea f7       	brpl	.-6      	; 0x314 <leds_set_status+0x2a>
 31a:	82 2b       	or	r24, r18
 31c:	08 c0       	rjmp	.+16     	; 0x32e <leds_set_status+0x44>
 31e:	81 e0       	ldi	r24, 0x01	; 1
 320:	90 e0       	ldi	r25, 0x00	; 0
 322:	01 c0       	rjmp	.+2      	; 0x326 <leds_set_status+0x3c>
 324:	88 0f       	add	r24, r24
 326:	6a 95       	dec	r22
 328:	ea f7       	brpl	.-6      	; 0x324 <leds_set_status+0x3a>
 32a:	80 95       	com	r24
 32c:	82 23       	and	r24, r18
 32e:	83 b9       	out	0x03, r24	; 3
 330:	08 95       	ret

00000332 <leds_set_status_intensity>:
 332:	90 93 07 01 	sts	0x0107, r25	; 0x800107 <pwm_channel_C+0x1>
 336:	80 93 06 01 	sts	0x0106, r24	; 0x800106 <pwm_channel_C>
 33a:	08 95       	ret

0000033c <leds_get_status_intensity>:
 33c:	80 91 06 01 	lds	r24, 0x0106	; 0x800106 <pwm_channel_C>
 340:	90 91 07 01 	lds	r25, 0x0107	; 0x800107 <pwm_channel_C+0x1>
 344:	08 95       	ret

00000346 <leds_set_headlights>:
 346:	90 93 01 01 	sts	0x0101, r25	; 0x800101 <_edata+0x1>
 34a:	80 93 00 01 	sts	0x0100, r24	; 0x800100 <_edata>
 34e:	08 95       	ret

00000350 <leds_get_headlights>:
 350:	80 91 00 01 	lds	r24, 0x0100	; 0x800100 <_edata>
 354:	90 91 01 01 	lds	r25, 0x0101	; 0x800101 <_edata+0x1>
 358:	08 95       	ret

0000035a <leds_set_displaylight>:
 35a:	90 93 03 01 	sts	0x0103, r25	; 0x800103 <pwm_channel_B+0x1>
 35e:	80 93 02 01 	sts	0x0102, r24	; 0x800102 <pwm_channel_B>
 362:	08 95       	ret

00000364 <leds_get_displaylight>:
 364:	80 91 02 01 	lds	r24, 0x0102	; 0x800102 <pwm_channel_B>
 368:	90 91 03 01 	lds	r25, 0x0103	; 0x800103 <pwm_channel_B+0x1>
 36c:	08 95       	ret

0000036e <adc_init>:
 36e:	e1 e6       	ldi	r30, 0x61	; 97
 370:	f0 e0       	ldi	r31, 0x00	; 0
 372:	90 81       	ld	r25, Z
 374:	21 e0       	ldi	r18, 0x01	; 1
 376:	30 e0       	ldi	r19, 0x00	; 0
 378:	01 c0       	rjmp	.+2      	; 0x37c <adc_init+0xe>
 37a:	22 0f       	add	r18, r18
 37c:	8a 95       	dec	r24
 37e:	ea f7       	brpl	.-6      	; 0x37a <adc_init+0xc>
 380:	20 95       	com	r18
 382:	92 23       	and	r25, r18
 384:	90 83       	st	Z, r25
 386:	e2 e6       	ldi	r30, 0x62	; 98
 388:	f0 e0       	ldi	r31, 0x00	; 0
 38a:	80 81       	ld	r24, Z
 38c:	28 23       	and	r18, r24
 38e:	20 83       	st	Z, r18
 390:	08 95       	ret

00000392 <adc_read>:
 392:	90 e4       	ldi	r25, 0x40	; 64
 394:	97 b9       	out	0x07, r25	; 7
 396:	97 b1       	in	r25, 0x07	; 7
 398:	87 70       	andi	r24, 0x07	; 7
 39a:	98 2b       	or	r25, r24
 39c:	97 b9       	out	0x07, r25	; 7
 39e:	87 ec       	ldi	r24, 0xC7	; 199
 3a0:	86 b9       	out	0x06, r24	; 6
 3a2:	36 9b       	sbis	0x06, 6	; 6
 3a4:	02 c0       	rjmp	.+4      	; 0x3aa <adc_read+0x18>
 3a6:	00 00       	nop
 3a8:	fc cf       	rjmp	.-8      	; 0x3a2 <adc_read+0x10>
 3aa:	24 b1       	in	r18, 0x04	; 4
 3ac:	85 b1       	in	r24, 0x05	; 5
 3ae:	90 e0       	ldi	r25, 0x00	; 0
 3b0:	98 2f       	mov	r25, r24
 3b2:	88 27       	eor	r24, r24
 3b4:	82 0f       	add	r24, r18
 3b6:	91 1d       	adc	r25, r1
 3b8:	20 91 10 01 	lds	r18, 0x0110	; 0x800110 <adc_random_seed>
 3bc:	30 91 11 01 	lds	r19, 0x0111	; 0x800111 <adc_random_seed+0x1>
 3c0:	28 0f       	add	r18, r24
 3c2:	39 1f       	adc	r19, r25
 3c4:	30 93 11 01 	sts	0x0111, r19	; 0x800111 <adc_random_seed+0x1>
 3c8:	20 93 10 01 	sts	0x0110, r18	; 0x800110 <adc_random_seed>
 3cc:	08 95       	ret

000003ce <adc_get_random_seed>:
 3ce:	80 91 10 01 	lds	r24, 0x0110	; 0x800110 <adc_random_seed>
 3d2:	90 91 11 01 	lds	r25, 0x0111	; 0x800111 <adc_random_seed+0x1>
 3d6:	08 95       	ret

000003d8 <_exit>:
 3d8:	f8 94       	cli

000003da <__stop_program>:
 3da:	ff cf       	rjmp	.-2      	; 0x3da <__stop_program>
